target datalayout = "e-m:e-p270:32:32-p271:32:32-p272:64:64-i64:64-i128:128-f80:128-n8:16:32:64-S128"
target triple = "x86_64-pc-linux-gnu"

%struct.BuildAccumulator = type { ptr, i64, ptr, i32, ptr, %struct.RBTreeIterator }
%struct.RBTreeIterator = type { ptr, ptr, ptr, i8 }
%struct.GinEntryAccumulator = type { %struct.RBTNode, i64, i8, i16, i8, ptr, i32, i32 }
%struct.RBTNode = type { i8, ptr, ptr, ptr }

; Function Attrs: nounwind uwtable
define internal i32 @cmpEntryAccumulator(ptr noundef %0, ptr noundef %1, ptr noundef %2) #0 {
  %4 = alloca ptr, align 8
  %5 = alloca ptr, align 8
  %6 = alloca ptr, align 8
  %7 = alloca ptr, align 8
  %8 = alloca ptr, align 8
  %9 = alloca ptr, align 8
  store ptr %0, ptr %4, align 8
  store ptr %1, ptr %5, align 8
  store ptr %2, ptr %6, align 8
  call void @llvm.lifetime.start.p0(i64 8, ptr %7) #6
  %10 = load ptr, ptr %4, align 8
  store ptr %10, ptr %7, align 8
  call void @llvm.lifetime.start.p0(i64 8, ptr %8) #6
  %11 = load ptr, ptr %5, align 8
  store ptr %11, ptr %8, align 8
  call void @llvm.lifetime.start.p0(i64 8, ptr %9) #6
  %12 = load ptr, ptr %6, align 8
  store ptr %12, ptr %9, align 8
  %13 = load ptr, ptr %9, align 8
  %14 = getelementptr inbounds nuw %struct.BuildAccumulator, ptr %13, i32 0, i32 0
  %15 = load ptr, ptr %14, align 8
  %16 = load ptr, ptr %7, align 8
  %17 = getelementptr inbounds nuw %struct.GinEntryAccumulator, ptr %16, i32 0, i32 3
  %18 = load i16, ptr %17, align 2
  %19 = load ptr, ptr %7, align 8
  %20 = getelementptr inbounds nuw %struct.GinEntryAccumulator, ptr %19, i32 0, i32 1
  %21 = load i64, ptr %20, align 8
  %22 = load ptr, ptr %7, align 8
  %23 = getelementptr inbounds nuw %struct.GinEntryAccumulator, ptr %22, i32 0, i32 2
  %24 = load i8, ptr %23, align 8
  %25 = load ptr, ptr %8, align 8
  %26 = getelementptr inbounds nuw %struct.GinEntryAccumulator, ptr %25, i32 0, i32 3
  %27 = load i16, ptr %26, align 2
  %28 = load ptr, ptr %8, align 8
  %29 = getelementptr inbounds nuw %struct.GinEntryAccumulator, ptr %28, i32 0, i32 1
  %30 = load i64, ptr %29, align 8
  %31 = load ptr, ptr %8, align 8
  %32 = getelementptr inbounds nuw %struct.GinEntryAccumulator, ptr %31, i32 0, i32 2
  %33 = load i8, ptr %32, align 8
  %34 = call i32 @ginCompareAttEntries(ptr noundef %15, i16 noundef zeroext %18, i64 noundef %21, i8 noundef signext %24, i16 noundef zeroext %27, i64 noundef %30, i8 noundef signext %33)
  call void @llvm.lifetime.end.p0(i64 8, ptr %9) #6
  call void @llvm.lifetime.end.p0(i64 8, ptr %8) #6
  call void @llvm.lifetime.end.p0(i64 8, ptr %7) #6
  ret i32 %34
}