; Function Attrs: nounwind uwtable
define internal i32 @cmpEntryAccumulator(ptr noundef readonly captures(none) %0, ptr noundef readonly captures(none) %1, ptr noundef readonly captures(none) %2) #0 {
  %4 = load ptr, ptr %2, align 8
  %5 = getelementptr inbounds nuw i8, ptr %0, i64 42
  %6 = load i16, ptr %5, align 2
  %7 = getelementptr inbounds nuw i8, ptr %0, i64 32
  %8 = load i64, ptr %7, align 8
  %9 = getelementptr inbounds nuw i8, ptr %0, i64 40
  %10 = load i8, ptr %9, align 8
  %11 = getelementptr inbounds nuw i8, ptr %1, i64 42
  %12 = load i16, ptr %11, align 2
  %13 = getelementptr inbounds nuw i8, ptr %1, i64 32
  %14 = load i64, ptr %13, align 8
  %15 = getelementptr inbounds nuw i8, ptr %1, i64 40
  %16 = load i8, ptr %15, align 8
  %17 = tail call i32 @ginCompareAttEntries(ptr noundef %4, i16 noundef zeroext %6, i64 noundef %8, i8 noundef signext %10, i16 noundef zeroext %12, i64 noundef %14, i8 noundef signext %16) #9
  ret i32 %17
}